target datalayout = "e-m:e-p270:32:32-p271:32:32-p272:64:64-i64:64-i128:128-f80:128-n8:16:32:64-S128"
target triple = "x86_64-pc-linux-gnu"

%struct.AVFilterContext = type { ptr, ptr, ptr, ptr, ptr, i32, ptr, ptr, i32, ptr, ptr, i32, i32, ptr, ptr, ptr, ptr, i32, ptr, i32, i32 }
%struct.VectorscopeContext = type { ptr, i32, i32, float, [4 x i16], [2 x float], [4 x i32], [4 x i32], i32, i32, i32, i32, i32, i32, i32, i32, i32, i32, i32, float, float, float, float, [2 x i32], i32, i32, i32, i32, i32, ptr, ptr, ptr, ptr }
%struct.AVFilterLink = type { ptr, ptr, ptr, ptr, i32, i32, i32, i32, %struct.AVRational, i32, i32, i32, %struct.AVChannelLayout, %struct.AVRational, ptr, i32, %struct.AVFilterFormatsConfig, %struct.AVFilterFormatsConfig }
%struct.AVChannelLayout = type { i32, i32, %union.anon.1, ptr }
%union.anon.1 = type { i64 }
%struct.AVRational = type { i32, i32 }
%struct.AVFilterFormatsConfig = type { ptr, ptr, ptr, ptr, ptr }

; Function Attrs: nounwind uwtable
define internal i32 @config_output(ptr noundef %0) #1 {
  %2 = alloca i32, align 4
  %3 = alloca ptr, align 8
  %4 = alloca ptr, align 8
  %5 = alloca i32, align 4
  %6 = alloca %struct.AVRational, align 4
  %7 = alloca i32, align 4
  store ptr %0, ptr %3, align 8, !tbaa !25
  call void @llvm.lifetime.start.p0(i64 8, ptr %4) #11
  %8 = load ptr, ptr %3, align 8, !tbaa !25
  %9 = getelementptr inbounds nuw %struct.AVFilterLink, ptr %8, i32 0, i32 0
  %10 = load ptr, ptr %9, align 8, !tbaa !194
  %11 = getelementptr inbounds nuw %struct.AVFilterContext, ptr %10, i32 0, i32 9
  %12 = load ptr, ptr %11, align 8, !tbaa !9
  store ptr %12, ptr %4, align 8, !tbaa !22
  call void @llvm.lifetime.start.p0(i64 4, ptr %5) #11
  %13 = load ptr, ptr %4, align 8, !tbaa !22
  %14 = getelementptr inbounds nuw %struct.VectorscopeContext, ptr %13, i32 0, i32 14
  %15 = load i32, ptr %14, align 4, !tbaa !64
  %16 = load ptr, ptr %3, align 8, !tbaa !25
  %17 = getelementptr inbounds nuw %struct.AVFilterLink, ptr %16, i32 0, i32 6
  store i32 %15, ptr %17, align 8, !tbaa !77
  %18 = load ptr, ptr %3, align 8, !tbaa !25
  %19 = getelementptr inbounds nuw %struct.AVFilterLink, ptr %18, i32 0, i32 7
  store i32 %15, ptr %19, align 4, !tbaa !78
  %20 = load ptr, ptr %3, align 8, !tbaa !25
  %21 = getelementptr inbounds nuw %struct.AVFilterLink, ptr %20, i32 0, i32 8
  %22 = getelementptr inbounds nuw %struct.AVRational, ptr %6, i32 0, i32 0
  store i32 1, ptr %22, align 4, !tbaa !195
  %23 = getelementptr inbounds nuw %struct.AVRational, ptr %6, i32 0, i32 1
  store i32 1, ptr %23, align 4, !tbaa !196
  call void @llvm.memcpy.p0.p0.i64(ptr align 8 %21, ptr align 4 %6, i64 8, i1 false), !tbaa.struct !197
  %24 = load ptr, ptr %4, align 8, !tbaa !22
  %25 = getelementptr inbounds nuw %struct.VectorscopeContext, ptr %24, i32 0, i32 14
  %26 = load i32, ptr %25, align 4, !tbaa !64
  %27 = sext i32 %26 to i64
  %28 = load ptr, ptr %4, align 8, !tbaa !22
  %29 = getelementptr inbounds nuw %struct.VectorscopeContext, ptr %28, i32 0, i32 14
  %30 = load i32, ptr %29, align 4, !tbaa !64
  %31 = sext i32 %30 to i64
  %32 = call noalias ptr @av_calloc(i64 noundef %27, i64 noundef %31)
  %33 = load ptr, ptr %4, align 8, !tbaa !22
  %34 = getelementptr inbounds nuw %struct.VectorscopeContext, ptr %33, i32 0, i32 29
  store ptr %32, ptr %34, align 8, !tbaa !198
  %35 = load ptr, ptr %4, align 8, !tbaa !22
  %36 = getelementptr inbounds nuw %struct.VectorscopeContext, ptr %35, i32 0, i32 29
  %37 = load ptr, ptr %36, align 8, !tbaa !198
  %38 = icmp ne ptr %37, null
  br i1 %38, label %40, label %39

39:                                               ; preds = %1
  store i32 -12, ptr %2, align 4
  store i32 1, ptr %7, align 4
  br label %81

40:                                               ; preds = %1
  %41 = load ptr, ptr %4, align 8, !tbaa !22
  %42 = getelementptr inbounds nuw %struct.VectorscopeContext, ptr %41, i32 0, i32 14
  %43 = load i32, ptr %42, align 4, !tbaa !64
  %44 = sext i32 %43 to i64
  %45 = call noalias ptr @av_calloc(i64 noundef %44, i64 noundef 8)
  %46 = load ptr, ptr %4, align 8, !tbaa !22
  %47 = getelementptr inbounds nuw %struct.VectorscopeContext, ptr %46, i32 0, i32 30
  store ptr %45, ptr %47, align 8, !tbaa !167
  %48 = load ptr, ptr %4, align 8, !tbaa !22
  %49 = getelementptr inbounds nuw %struct.VectorscopeContext, ptr %48, i32 0, i32 30
  %50 = load ptr, ptr %49, align 8, !tbaa !167
  %51 = icmp ne ptr %50, null
  br i1 %51, label %53, label %52

52:                                               ; preds = %40
  store i32 -12, ptr %2, align 4
  store i32 1, ptr %7, align 4
  br label %81

53:                                               ; preds = %40
  store i32 0, ptr %5, align 4, !tbaa !47
  br label %54

54:                                               ; preds = %77, %53
  %55 = load i32, ptr %5, align 4, !tbaa !47
  %56 = load ptr, ptr %4, align 8, !tbaa !22
  %57 = getelementptr inbounds nuw %struct.VectorscopeContext, ptr %56, i32 0, i32 14
  %58 = load i32, ptr %57, align 4, !tbaa !64
  %59 = icmp slt i32 %55, %58
  br i1 %59, label %60, label %80

60:                                               ; preds = %54
  %61 = load ptr, ptr %4, align 8, !tbaa !22
  %62 = getelementptr inbounds nuw %struct.VectorscopeContext, ptr %61, i32 0, i32 29
  %63 = load ptr, ptr %62, align 8, !tbaa !198
  %64 = load ptr, ptr %4, align 8, !tbaa !22
  %65 = getelementptr inbounds nuw %struct.VectorscopeContext, ptr %64, i32 0, i32 14
  %66 = load i32, ptr %65, align 4, !tbaa !64
  %67 = load i32, ptr %5, align 4, !tbaa !47
  %68 = mul nsw i32 %66, %67
  %69 = sext i32 %68 to i64
  %70 = getelementptr inbounds i8, ptr %63, i64 %69
  %71 = load ptr, ptr %4, align 8, !tbaa !22
  %72 = getelementptr inbounds nuw %struct.VectorscopeContext, ptr %71, i32 0, i32 30
  %73 = load ptr, ptr %72, align 8, !tbaa !167
  %74 = load i32, ptr %5, align 4, !tbaa !47
  %75 = sext i32 %74 to i64
  %76 = getelementptr inbounds ptr, ptr %73, i64 %75
  store ptr %70, ptr %76, align 8, !tbaa !82
  br label %77

77:                                               ; preds = %60
  %78 = load i32, ptr %5, align 4, !tbaa !47
  %79 = add nsw i32 %78, 1
  store i32 %79, ptr %5, align 4, !tbaa !47
  br label %54, !llvm.loop !199

80:                                               ; preds = %54
  store i32 0, ptr %2, align 4
  store i32 1, ptr %7, align 4
  br label %81

81:                                               ; preds = %80, %52, %39
  call void @llvm.lifetime.end.p0(i64 4, ptr %5) #11
  call void @llvm.lifetime.end.p0(i64 8, ptr %4) #11
  %82 = load i32, ptr %2, align 4
  ret i32 %82
}