; Function Attrs: nounwind uwtable
define internal range(i32 -12, 1) i32 @config_output(ptr noundef captures(none) initializes((40, 56)) %0) #1 {
  %2 = load ptr, ptr %0, align 8, !tbaa !185
  %3 = getelementptr inbounds nuw i8, ptr %2, i64 72
  %4 = load ptr, ptr %3, align 8, !tbaa !4
  %5 = getelementptr inbounds nuw i8, ptr %4, i64 92
  %6 = load i32, ptr %5, align 4, !tbaa !57
  %7 = getelementptr inbounds nuw i8, ptr %0, i64 40
  store i32 %6, ptr %7, align 8, !tbaa !70
  %8 = getelementptr inbounds nuw i8, ptr %0, i64 44
  store i32 %6, ptr %8, align 4, !tbaa !71
  %9 = getelementptr inbounds nuw i8, ptr %0, i64 48
  store i32 1, ptr %9, align 8, !tbaa !44
  %.sroa.2.0..sroa_idx = getelementptr inbounds nuw i8, ptr %0, i64 52
  store i32 1, ptr %.sroa.2.0..sroa_idx, align 4, !tbaa !44
  %10 = load i32, ptr %5, align 4, !tbaa !57
  %11 = sext i32 %10 to i64
  %12 = tail call noalias ptr @av_calloc(i64 noundef %11, i64 noundef %11) #12
  %13 = getelementptr inbounds nuw i8, ptr %4, i64 160
  store ptr %12, ptr %13, align 8, !tbaa !186
  %.not = icmp eq ptr %12, null
  br i1 %.not, label %.loopexit, label %14

14:                                               ; preds = %1
  %15 = load i32, ptr %5, align 4, !tbaa !57
  %16 = sext i32 %15 to i64
  %17 = tail call noalias ptr @av_calloc(i64 noundef %16, i64 noundef 8) #12
  %18 = getelementptr inbounds nuw i8, ptr %4, i64 168
  store ptr %17, ptr %18, align 8, !tbaa !106
  %.not22 = icmp eq ptr %17, null
  br i1 %.not22, label %.loopexit, label %.preheader

.preheader:                                       ; preds = %14
  %19 = load i32, ptr %5, align 4, !tbaa !57
  %20 = icmp sgt i32 %19, 0
  br i1 %20, label %.lr.ph.preheader, label %.loopexit

.lr.ph.preheader:                                 ; preds = %.preheader
  %21 = zext nneg i32 %19 to i64
  %.pre = load ptr, ptr %13, align 8, !tbaa !186
  br label %.lr.ph

.lr.ph:                                           ; preds = %.lr.ph.preheader, %.lr.ph
  %indvars.iv = phi i64 [ 0, %.lr.ph.preheader ], [ %indvars.iv.next, %.lr.ph ]
  %22 = mul nuw nsw i64 %indvars.iv, %21
  %23 = getelementptr inbounds nuw i8, ptr %.pre, i64 %22
  %24 = getelementptr inbounds nuw ptr, ptr %17, i64 %indvars.iv
  store ptr %23, ptr %24, align 8, !tbaa !75
  %indvars.iv.next = add nuw nsw i64 %indvars.iv, 1
  %exitcond.not = icmp eq i64 %indvars.iv.next, %21
  br i1 %exitcond.not, label %.loopexit, label %.lr.ph, !llvm.loop !187

.loopexit:                                        ; preds = %.lr.ph, %.preheader, %14, %1
  %.0 = phi i32 [ -12, %1 ], [ -12, %14 ], [ 0, %.preheader ], [ 0, %.lr.ph ]
  ret i32 %.0
}